; Function Attrs: mustprogress nounwind uwtable
define dso_local void @_ZN5clang14TextNodeDumper23VisitCXXBoolLiteralExprEPKNS_18CXXBoolLiteralExprE(ptr nocapture noundef nonnull readonly align 8 dereferenceable(1168) %0, ptr nocapture noundef readonly %1) local_unnamed_addr #0 align 2 {
  %3 = getelementptr inbounds nuw i8, ptr %0, i64 1096
  %4 = load ptr, ptr %3, align 8
  %5 = getelementptr inbounds nuw i8, ptr %4, i64 24
  %6 = load ptr, ptr %5, align 8
  %7 = getelementptr inbounds nuw i8, ptr %4, i64 32
  %8 = load ptr, ptr %7, align 8
  %9 = icmp eq ptr %6, %8
  br i1 %9, label %10, label %12

10:                                               ; preds = %2
  %11 = tail call noundef nonnull align 8 dereferenceable(48) ptr @_ZN4llvm11raw_ostream5writeEPKcm(ptr noundef nonnull align 8 dereferenceable(48) %4, ptr noundef nonnull @.str.433, i64 noundef 1) #18
  %.phi.trans.insert = getelementptr inbounds nuw i8, ptr %11, i64 32
  %.pre = load ptr, ptr %.phi.trans.insert, align 8
  br label %_ZN4llvm11raw_ostreamlsEPKc.exit

12:                                               ; preds = %2
  store i8 32, ptr %8, align 1
  %13 = load ptr, ptr %7, align 8
  %14 = getelementptr inbounds i8, ptr %13, i64 1
  store ptr %14, ptr %7, align 8
  br label %_ZN4llvm11raw_ostreamlsEPKc.exit

_ZN4llvm11raw_ostreamlsEPKc.exit:                 ; preds = %10, %12
  %15 = phi ptr [ %.pre, %10 ], [ %14, %12 ]
  %.0.i.i = phi ptr [ %11, %10 ], [ %4, %12 ]
  %16 = load i32, ptr %1, align 8
  %17 = and i32 %16, 262144
  %.not = icmp eq i32 %17, 0
  %18 = select i1 %.not, ptr @.str.617, ptr @.str.616
  %19 = select i1 %.not, i64 5, i64 4
  %20 = getelementptr inbounds nuw i8, ptr %.0.i.i, i64 24
  %21 = load ptr, ptr %20, align 8
  %22 = ptrtoint ptr %21 to i64
  %23 = ptrtoint ptr %15 to i64
  %24 = sub i64 %22, %23
  %25 = icmp ugt i64 %19, %24
  br i1 %25, label %26, label %28

26:                                               ; preds = %_ZN4llvm11raw_ostreamlsEPKc.exit
  %27 = tail call noundef nonnull align 8 dereferenceable(48) ptr @_ZN4llvm11raw_ostream5writeEPKcm(ptr noundef nonnull align 8 dereferenceable(48) %.0.i.i, ptr noundef nonnull %18, i64 noundef %19) #18
  br label %_ZN4llvm11raw_ostreamlsEPKc.exit4

28:                                               ; preds = %_ZN4llvm11raw_ostreamlsEPKc.exit
  %29 = getelementptr inbounds nuw i8, ptr %.0.i.i, i64 32
  tail call void @llvm.memcpy.p0.p0.i64(ptr noundef nonnull align 1 dereferenceable(4) %15, ptr noundef nonnull align 1 dereferenceable(4) %18, i64 %19, i1 false)
  %30 = load ptr, ptr %29, align 8
  %31 = getelementptr inbounds i8, ptr %30, i64 %19
  store ptr %31, ptr %29, align 8
  br label %_ZN4llvm11raw_ostreamlsEPKc.exit4

_ZN4llvm11raw_ostreamlsEPKc.exit4:                ; preds = %26, %28
  ret void
}